target datalayout = "e-m:e-p270:32:32-p271:32:32-p272:64:64-i64:64-i128:128-f80:128-n8:16:32:64-S128"
target triple = "x86_64-unknown-linux-gnu"

%struct.QTailQLink = type { ptr, ptr }
%struct.EHCIQueue = type { ptr, %union.anon.16, i32, i64, i32, i32, %struct.EHCIqh, i32, i32, i32, ptr, %union.anon.17 }
%union.anon.16 = type { %struct.QTailQLink }
%struct.EHCIqh = type { i32, i32, i32, i32, i32, i32, i32, [5 x i32] }
%union.anon.17 = type { %struct.QTailQLink }
%struct.timeval = type { i64, i64 }

@trace_events_enabled_count = external global i32, align 4
@message_with_timestamp = external global i8, align 1
@qemu_loglevel = external global i32, align 4
@_TRACE_USB_EHCI_QUEUE_ACTION_DSTATE = external global i16, align 2
@.str.38 = private unnamed_addr constant [45 x i8] c"%d@%zu.%06zu:usb_ehci_queue_action q %p: %s\0A\00", align 1
@.str.39 = private unnamed_addr constant [32 x i8] c"usb_ehci_queue_action q %p: %s\0A\00", align 1
@.str.40 = private unnamed_addr constant [7 x i8] c"cancel\00", align 1

; Function Attrs: nounwind sspstrong uwtable
define internal zeroext i1 @qemu_loglevel_mask(i32 noundef %mask) #0 {
entry:
  %mask.addr = alloca i32, align 4
  store i32 %mask, ptr %mask.addr, align 4
  %0 = load i32, ptr @qemu_loglevel, align 4
  %1 = load i32, ptr %mask.addr, align 4
  %and = and i32 %0, %1
  %cmp = icmp ne i32 %and, 0
  ret i1 %cmp
}

; Function Attrs: nounwind sspstrong uwtable
define internal void @_nocheck__trace_usb_ehci_queue_action(ptr noundef %q, ptr noundef %action) #0 {
entry:
  %q.addr = alloca ptr, align 8
  %action.addr = alloca ptr, align 8
  %_now = alloca %struct.timeval, align 8
  store ptr %q, ptr %q.addr, align 8
  store ptr %action, ptr %action.addr, align 8
  %0 = load i32, ptr @trace_events_enabled_count, align 4
  %tobool = icmp ne i32 %0, 0
  %lnot = xor i1 %tobool, true
  %lnot1 = xor i1 %lnot, true
  %lnot.ext = zext i1 %lnot1 to i32
  %conv = sext i32 %lnot.ext to i64
  %tobool2 = icmp ne i64 %conv, 0
  br i1 %tobool2, label %land.lhs.true, label %if.end11

land.lhs.true:                                    ; preds = %entry
  %1 = load i16, ptr @_TRACE_USB_EHCI_QUEUE_ACTION_DSTATE, align 2
  %conv3 = zext i16 %1 to i32
  %tobool4 = icmp ne i32 %conv3, 0
  br i1 %tobool4, label %land.lhs.true5, label %if.end11

land.lhs.true5:                                   ; preds = %land.lhs.true
  %call = call zeroext i1 @qemu_loglevel_mask(i32 noundef 32768)
  br i1 %call, label %if.then, label %if.end11

if.then:                                          ; preds = %land.lhs.true5
  %2 = load i8, ptr @message_with_timestamp, align 1
  %tobool7 = trunc i8 %2 to i1
  br i1 %tobool7, label %if.then8, label %if.else

if.then8:                                         ; preds = %if.then
  %call9 = call i32 @gettimeofday(ptr noundef %_now, ptr noundef null) #10
  %call10 = call i32 @qemu_get_thread_id()
  %tv_sec = getelementptr inbounds %struct.timeval, ptr %_now, i32 0, i32 0
  %3 = load i64, ptr %tv_sec, align 8
  %tv_usec = getelementptr inbounds %struct.timeval, ptr %_now, i32 0, i32 1
  %4 = load i64, ptr %tv_usec, align 8
  %5 = load ptr, ptr %q.addr, align 8
  %6 = load ptr, ptr %action.addr, align 8
  call void (ptr, ...) @qemu_log(ptr noundef @.str.38, i32 noundef %call10, i64 noundef %3, i64 noundef %4, ptr noundef %5, ptr noundef %6)
  br label %if.end

if.else:                                          ; preds = %if.then
  %7 = load ptr, ptr %q.addr, align 8
  %8 = load ptr, ptr %action.addr, align 8
  call void (ptr, ...) @qemu_log(ptr noundef @.str.39, ptr noundef %7, ptr noundef %8)
  br label %if.end

if.end:                                           ; preds = %if.else, %if.then8
  br label %if.end11

if.end11:                                         ; preds = %if.end, %land.lhs.true5, %land.lhs.true, %entry
  ret void
}

; Function Attrs: nounwind sspstrong uwtable
define internal void @ehci_queue_stopped(ptr noundef %q) #0 {
entry:
  %q.addr = alloca ptr, align 8
  %endp = alloca i32, align 4
  store ptr %q, ptr %q.addr, align 8
  %0 = load ptr, ptr %q.addr, align 8
  %qh = getelementptr inbounds %struct.EHCIQueue, ptr %0, i32 0, i32 6
  %epchar = getelementptr inbounds %struct.EHCIqh, ptr %qh, i32 0, i32 1
  %1 = load i32, ptr %epchar, align 4
  %and = and i32 %1, 3840
  %shr = lshr i32 %and, 8
  store i32 %shr, ptr %endp, align 4
  %2 = load ptr, ptr %q.addr, align 8
  %last_pid = getelementptr inbounds %struct.EHCIQueue, ptr %2, i32 0, i32 9
  %3 = load i32, ptr %last_pid, align 8
  %tobool = icmp ne i32 %3, 0
  br i1 %tobool, label %lor.lhs.false, label %if.then

lor.lhs.false:                                    ; preds = %entry
  %4 = load ptr, ptr %q.addr, align 8
  %dev = getelementptr inbounds %struct.EHCIQueue, ptr %4, i32 0, i32 10
  %5 = load ptr, ptr %dev, align 8
  %tobool1 = icmp ne ptr %5, null
  br i1 %tobool1, label %if.end, label %if.then

if.then:                                          ; preds = %lor.lhs.false, %entry
  br label %return

if.end:                                           ; preds = %lor.lhs.false
  %6 = load ptr, ptr %q.addr, align 8
  %dev2 = getelementptr inbounds %struct.EHCIQueue, ptr %6, i32 0, i32 10
  %7 = load ptr, ptr %dev2, align 8
  %8 = load ptr, ptr %q.addr, align 8
  %dev3 = getelementptr inbounds %struct.EHCIQueue, ptr %8, i32 0, i32 10
  %9 = load ptr, ptr %dev3, align 8
  %10 = load ptr, ptr %q.addr, align 8
  %last_pid4 = getelementptr inbounds %struct.EHCIQueue, ptr %10, i32 0, i32 9
  %11 = load i32, ptr %last_pid4, align 8
  %12 = load i32, ptr %endp, align 4
  %call = call ptr @usb_ep_get(ptr noundef %9, i32 noundef %11, i32 noundef %12)
  call void @usb_device_ep_stopped(ptr noundef %7, ptr noundef %call)
  br label %return

return:                                           ; preds = %if.end, %if.then
  ret void
}

; Function Attrs: nounwind sspstrong uwtable
define internal void @trace_usb_ehci_queue_action(ptr noundef %q, ptr noundef %action) #0 {
entry:
  %q.addr = alloca ptr, align 8
  %action.addr = alloca ptr, align 8
  store ptr %q, ptr %q.addr, align 8
  store ptr %action, ptr %action.addr, align 8
  %0 = load ptr, ptr %q.addr, align 8
  %1 = load ptr, ptr %action.addr, align 8
  call void @_nocheck__trace_usb_ehci_queue_action(ptr noundef %0, ptr noundef %1)
  ret void
}

; Function Attrs: nounwind sspstrong uwtable
define internal i32 @ehci_cancel_queue(ptr noundef %q) #0 {
entry:
  %q.addr = alloca ptr, align 8
  %p = alloca ptr, align 8
  %packets = alloca i32, align 4
  store ptr %q, ptr %q.addr, align 8
  store i32 0, ptr %packets, align 4
  %0 = load ptr, ptr %q.addr, align 8
  %packets1 = getelementptr inbounds %struct.EHCIQueue, ptr %0, i32 0, i32 11
  %1 = load ptr, ptr %packets1, align 8
  store ptr %1, ptr %p, align 8
  %2 = load ptr, ptr %p, align 8
  %cmp = icmp eq ptr %2, null
  br i1 %cmp, label %if.then, label %if.end

if.then:                                          ; preds = %entry
  br label %leave

if.end:                                           ; preds = %entry
  %3 = load ptr, ptr %q.addr, align 8
  call void @trace_usb_ehci_queue_action(ptr noundef %3, ptr noundef @.str.40)
  br label %do.body

do.body:                                          ; preds = %do.cond, %if.end
  %4 = load ptr, ptr %p, align 8
  call void @ehci_free_packet(ptr noundef %4)
  %5 = load i32, ptr %packets, align 4
  %inc = add i32 %5, 1
  store i32 %inc, ptr %packets, align 4
  br label %do.cond

do.cond:                                          ; preds = %do.body
  %6 = load ptr, ptr %q.addr, align 8
  %packets2 = getelementptr inbounds %struct.EHCIQueue, ptr %6, i32 0, i32 11
  %7 = load ptr, ptr %packets2, align 8
  store ptr %7, ptr %p, align 8
  %cmp3 = icmp ne ptr %7, null
  br i1 %cmp3, label %do.body, label %do.end, !llvm.loop !12

do.end:                                           ; preds = %do.cond
  br label %leave

leave:                                            ; preds = %do.end, %if.then
  %8 = load ptr, ptr %q.addr, align 8
  call void @ehci_queue_stopped(ptr noundef %8)
  %9 = load i32, ptr %packets, align 4
  ret i32 %9
}