; Function Attrs: nounwind sspstrong uwtable
define internal fastcc i32 @ehci_cancel_queue(ptr noundef %q) unnamed_addr #0 {
entry:
  %_now.i.i = alloca %struct.timeval, align 8
  %packets1 = getelementptr inbounds nuw i8, ptr %q, i64 120
  %0 = load ptr, ptr %packets1, align 8
  %cmp = icmp eq ptr %0, null
  br i1 %cmp, label %leave, label %if.end

if.end:                                           ; preds = %entry
  call void @llvm.lifetime.start.p0(i64 16, ptr nonnull %_now.i.i)
  %1 = load i32, ptr @trace_events_enabled_count, align 4
  %tobool.i.i = icmp ne i32 %1, 0
  %2 = load i16, ptr @_TRACE_USB_EHCI_QUEUE_ACTION_DSTATE, align 2
  %tobool4.i.i = icmp ne i16 %2, 0
  %or.cond.i.i = select i1 %tobool.i.i, i1 %tobool4.i.i, i1 false
  br i1 %or.cond.i.i, label %land.lhs.true5.i.i, label %trace_usb_ehci_queue_action.exit

land.lhs.true5.i.i:                               ; preds = %if.end
  %3 = load i32, ptr @qemu_loglevel, align 4
  %and.i.i.i = and i32 %3, 32768
  %cmp.i.not.i.i = icmp eq i32 %and.i.i.i, 0
  br i1 %cmp.i.not.i.i, label %trace_usb_ehci_queue_action.exit, label %if.then.i.i

if.then.i.i:                                      ; preds = %land.lhs.true5.i.i
  %4 = load i8, ptr @message_with_timestamp, align 1
  %tobool7.i.i = trunc i8 %4 to i1
  br i1 %tobool7.i.i, label %if.then8.i.i, label %if.else.i.i

if.then8.i.i:                                     ; preds = %if.then.i.i
  %call9.i.i = call i32 @gettimeofday(ptr noundef nonnull %_now.i.i, ptr noundef null) #17
  %call10.i.i = tail call i32 @qemu_get_thread_id() #17
  %5 = load i64, ptr %_now.i.i, align 8
  %tv_usec.i.i = getelementptr inbounds nuw i8, ptr %_now.i.i, i64 8
  %6 = load i64, ptr %tv_usec.i.i, align 8
  tail call void (ptr, ...) @qemu_log(ptr noundef nonnull @.str.38, i32 noundef %call10.i.i, i64 noundef %5, i64 noundef %6, ptr noundef nonnull %q, ptr noundef nonnull @.str.40) #17
  br label %trace_usb_ehci_queue_action.exit

if.else.i.i:                                      ; preds = %if.then.i.i
  tail call void (ptr, ...) @qemu_log(ptr noundef nonnull @.str.39, ptr noundef nonnull %q, ptr noundef nonnull @.str.40) #17
  br label %trace_usb_ehci_queue_action.exit

trace_usb_ehci_queue_action.exit:                 ; preds = %if.end, %land.lhs.true5.i.i, %if.then8.i.i, %if.else.i.i
  call void @llvm.lifetime.end.p0(i64 16, ptr nonnull %_now.i.i)
  br label %do.body

do.body:                                          ; preds = %do.body, %trace_usb_ehci_queue_action.exit
  %p.0 = phi ptr [ %0, %trace_usb_ehci_queue_action.exit ], [ %7, %do.body ]
  %packets.1 = phi i32 [ 0, %trace_usb_ehci_queue_action.exit ], [ %inc, %do.body ]
  tail call fastcc void @ehci_free_packet(ptr noundef nonnull %p.0)
  %inc = add i32 %packets.1, 1
  %7 = load ptr, ptr %packets1, align 8
  %cmp3.not = icmp eq ptr %7, null
  br i1 %cmp3.not, label %leave, label %do.body, !llvm.loop !14

leave:                                            ; preds = %do.body, %entry
  %packets.0 = phi i32 [ 0, %entry ], [ %inc, %do.body ]
  %epchar.i = getelementptr inbounds nuw i8, ptr %q, i64 52
  %8 = load i32, ptr %epchar.i, align 4
  %and.i = lshr i32 %8, 8
  %shr.i = and i32 %and.i, 15
  %last_pid.i = getelementptr inbounds nuw i8, ptr %q, i64 104
  %9 = load i32, ptr %last_pid.i, align 8
  %tobool.not.i = icmp eq i32 %9, 0
  br i1 %tobool.not.i, label %ehci_queue_stopped.exit, label %lor.lhs.false.i

lor.lhs.false.i:                                  ; preds = %leave
  %dev.i = getelementptr inbounds nuw i8, ptr %q, i64 112
  %10 = load ptr, ptr %dev.i, align 8
  %tobool1.not.i = icmp eq ptr %10, null
  br i1 %tobool1.not.i, label %ehci_queue_stopped.exit, label %if.end.i

if.end.i:                                         ; preds = %lor.lhs.false.i
  %call.i = tail call ptr @usb_ep_get(ptr noundef nonnull %10, i32 noundef %9, i32 noundef %shr.i) #17
  tail call void @usb_device_ep_stopped(ptr noundef nonnull %10, ptr noundef %call.i) #17
  br label %ehci_queue_stopped.exit

ehci_queue_stopped.exit:                          ; preds = %leave, %lor.lhs.false.i, %if.end.i
  ret i32 %packets.0
}